; ModuleID = '53/743.c'
source_filename = "53/743.c"
target datalayout = "e-m:e-p270:32:32-p271:32:32-p272:64:64-i64:64-f80:128-n8:16:32:64-S128"
target triple = "x86_64-pc-linux-gnu"

@.str = private unnamed_addr constant [3 x i8] c"%d\00", align 1
@.str.1 = private unnamed_addr constant [4 x i8] c"%d,\00", align 1

; Function Attrs: noinline nounwind uwtable
define dso_local void @main() #0 {
  %1 = alloca [300 x i32], align 16
  %2 = alloca [300 x i32], align 16
  %3 = alloca i32, align 4
  %4 = alloca i32, align 4
  %5 = alloca i32, align 4
  %6 = alloca i32, align 4
  %7 = alloca i32, align 4
  %8 = bitcast [300 x i32]* %2 to i8*
  call void @llvm.memset.p0i8.i64(i8* align 16 %8, i8 0, i64 1200, i1 false)
  store i32 1, i32* %7, align 4
  %9 = call i32 (i8*, ...) @__isoc99_scanf(i8* getelementptr inbounds ([3 x i8], [3 x i8]* @.str, i64 0, i64 0), i32* %3)
  store i32 0, i32* %4, align 4
  br label %10

10:                                               ; preds = %19, %0
  %11 = load i32, i32* %4, align 4
  %12 = load i32, i32* %3, align 4
  %13 = icmp slt i32 %11, %12
  br i1 %13, label %14, label %22

14:                                               ; preds = %10
  %15 = load i32, i32* %4, align 4
  %16 = sext i32 %15 to i64
  %17 = getelementptr inbounds [300 x i32], [300 x i32]* %1, i64 0, i64 %16
  %18 = call i32 (i8*, ...) @__isoc99_scanf(i8* getelementptr inbounds ([3 x i8], [3 x i8]* @.str, i64 0, i64 0), i32* %17)
  br label %19

19:                                               ; preds = %14
  %20 = load i32, i32* %4, align 4
  %21 = add nsw i32 %20, 1
  store i32 %21, i32* %4, align 4
  br label %10

22:                                               ; preds = %10
  %23 = getelementptr inbounds [300 x i32], [300 x i32]* %1, i64 0, i64 0
  %24 = load i32, i32* %23, align 16
  %25 = getelementptr inbounds [300 x i32], [300 x i32]* %2, i64 0, i64 0
  store i32 %24, i32* %25, align 16
  store i32 1, i32* %4, align 4
  br label %26

26:                                               ; preds = %65, %22
  %27 = load i32, i32* %4, align 4
  %28 = load i32, i32* %3, align 4
  %29 = icmp slt i32 %27, %28
  br i1 %29, label %30, label %68

30:                                               ; preds = %26
  store i32 0, i32* %6, align 4
  br label %31

31:                                               ; preds = %47, %30
  %32 = load i32, i32* %6, align 4
  %33 = load i32, i32* %4, align 4
  %34 = icmp slt i32 %32, %33
  br i1 %34, label %35, label %50

35:                                               ; preds = %31
  %36 = load i32, i32* %4, align 4
  %37 = sext i32 %36 to i64
  %38 = getelementptr inbounds [300 x i32], [300 x i32]* %1, i64 0, i64 %37
  %39 = load i32, i32* %38, align 4
  %40 = load i32, i32* %6, align 4
  %41 = sext i32 %40 to i64
  %42 = getelementptr inbounds [300 x i32], [300 x i32]* %2, i64 0, i64 %41
  %43 = load i32, i32* %42, align 4
  %44 = icmp eq i32 %39, %43
  br i1 %44, label %45, label %46

45:                                               ; preds = %35
  br label %50

46:                                               ; preds = %35
  br label %47

47:                                               ; preds = %46
  %48 = load i32, i32* %6, align 4
  %49 = add nsw i32 %48, 1
  store i32 %49, i32* %6, align 4
  br label %31

50:                                               ; preds = %45, %31
  %51 = load i32, i32* %6, align 4
  %52 = load i32, i32* %4, align 4
  %53 = icmp eq i32 %51, %52
  br i1 %53, label %54, label %64

54:                                               ; preds = %50
  %55 = load i32, i32* %4, align 4
  %56 = sext i32 %55 to i64
  %57 = getelementptr inbounds [300 x i32], [300 x i32]* %1, i64 0, i64 %56
  %58 = load i32, i32* %57, align 4
  %59 = load i32, i32* %7, align 4
  %60 = sext i32 %59 to i64
  %61 = getelementptr inbounds [300 x i32], [300 x i32]* %2, i64 0, i64 %60
  store i32 %58, i32* %61, align 4
  %62 = load i32, i32* %7, align 4
  %63 = add nsw i32 %62, 1
  store i32 %63, i32* %7, align 4
  br label %64

64:                                               ; preds = %54, %50
  br label %65

65:                                               ; preds = %64
  %66 = load i32, i32* %4, align 4
  %67 = add nsw i32 %66, 1
  store i32 %67, i32* %4, align 4
  br label %26

68:                                               ; preds = %26
  store i32 0, i32* %5, align 4
  br label %69

69:                                               ; preds = %80, %68
  %70 = load i32, i32* %5, align 4
  %71 = load i32, i32* %7, align 4
  %72 = sub nsw i32 %71, 1
  %73 = icmp slt i32 %70, %72
  br i1 %73, label %74, label %83

74:                                               ; preds = %69
  %75 = load i32, i32* %5, align 4
  %76 = sext i32 %75 to i64
  %77 = getelementptr inbounds [300 x i32], [300 x i32]* %2, i64 0, i64 %76
  %78 = load i32, i32* %77, align 4
  %79 = call i32 (i8*, ...) @printf(i8* getelementptr inbounds ([4 x i8], [4 x i8]* @.str.1, i64 0, i64 0), i32 %78)
  br label %80

80:                                               ; preds = %74
  %81 = load i32, i32* %5, align 4
  %82 = add nsw i32 %81, 1
  store i32 %82, i32* %5, align 4
  br label %69

83:                                               ; preds = %69
  %84 = load i32, i32* %7, align 4
  %85 = sub nsw i32 %84, 1
  %86 = sext i32 %85 to i64
  %87 = getelementptr inbounds [300 x i32], [300 x i32]* %2, i64 0, i64 %86
  %88 = load i32, i32* %87, align 4
  %89 = call i32 (i8*, ...) @printf(i8* getelementptr inbounds ([3 x i8], [3 x i8]* @.str, i64 0, i64 0), i32 %88)
  ret void
}

; Function Attrs: argmemonly nounwind willreturn
declare void @llvm.memset.p0i8.i64(i8* nocapture writeonly, i8, i64, i1 immarg) #1

declare dso_local i32 @__isoc99_scanf(i8*, ...) #2

declare dso_local i32 @printf(i8*, ...) #2


!llvm.module.flags = !{!0}
!llvm.ident = !{!1}

!0 = !{i32 1, !"wchar_size", i32 4}
!1 = !{!"clang version 10.0.0-4ubuntu1 "}
